target datalayout = "e-m:e-p270:32:32-p271:32:32-p272:64:64-i64:64-i128:128-f80:128-n8:16:32:64-S128"
target triple = "x86_64-pc-linux-gnu"

%struct.timeval = type { i64, i64 }
%struct.evhttp = type { %struct.anon.9, %struct.boundq, %struct.httpcbq, %struct.evconq, %struct.evwsq, i32, i32, %struct.vhostsq, %struct.aliasq, ptr, %struct.timeval, %struct.timeval, i64, i64, i32, ptr, i32, ptr, ptr, ptr, ptr, ptr, ptr, ptr, ptr, ptr, ptr }
%struct.anon.9 = type { ptr, ptr }
%struct.boundq = type { ptr, ptr }
%struct.httpcbq = type { ptr, ptr }
%struct.evconq = type { ptr, ptr }
%struct.evwsq = type { ptr, ptr }
%struct.vhostsq = type { ptr, ptr }
%struct.aliasq = type { ptr, ptr }
%struct.evhttp_server_alias = type { %struct.anon.13, ptr }
%struct.anon.13 = type { ptr, ptr }

; Function Attrs: nounwind uwtable
define i32 @evhttp_add_server_alias(ptr noundef %0, ptr noundef %1) #0 {
  %3 = alloca i32, align 4
  %4 = alloca ptr, align 8
  %5 = alloca ptr, align 8
  %6 = alloca ptr, align 8
  %7 = alloca i32, align 4
  store ptr %0, ptr %4, align 8
  store ptr %1, ptr %5, align 8
  call void @llvm.lifetime.start.p0(i64 8, ptr %6) #11
  %8 = call ptr @event_mm_calloc_(i64 noundef 1, i64 noundef 24)
  store ptr %8, ptr %6, align 8
  %9 = load ptr, ptr %6, align 8
  %10 = icmp ne ptr %9, null
  br i1 %10, label %12, label %11

11:                                               ; preds = %2
  store i32 -1, ptr %3, align 4
  store i32 1, ptr %7, align 4
  br label %48

12:                                               ; preds = %2
  %13 = load ptr, ptr %5, align 8
  %14 = call ptr @event_mm_strdup_(ptr noundef %13)
  %15 = load ptr, ptr %6, align 8
  %16 = getelementptr inbounds nuw %struct.evhttp_server_alias, ptr %15, i32 0, i32 1
  store ptr %14, ptr %16, align 8
  %17 = load ptr, ptr %6, align 8
  %18 = getelementptr inbounds nuw %struct.evhttp_server_alias, ptr %17, i32 0, i32 1
  %19 = load ptr, ptr %18, align 8
  %20 = icmp ne ptr %19, null
  br i1 %20, label %23, label %21

21:                                               ; preds = %12
  %22 = load ptr, ptr %6, align 8
  call void @event_mm_free_(ptr noundef %22)
  store i32 -1, ptr %3, align 4
  store i32 1, ptr %7, align 4
  br label %48

23:                                               ; preds = %12
  br label %24

24:                                               ; preds = %23
  %25 = load ptr, ptr %6, align 8
  %26 = getelementptr inbounds nuw %struct.evhttp_server_alias, ptr %25, i32 0, i32 0
  %27 = getelementptr inbounds nuw %struct.anon.13, ptr %26, i32 0, i32 0
  store ptr null, ptr %27, align 8
  %28 = load ptr, ptr %4, align 8
  %29 = getelementptr inbounds nuw %struct.evhttp, ptr %28, i32 0, i32 8
  %30 = getelementptr inbounds nuw %struct.aliasq, ptr %29, i32 0, i32 1
  %31 = load ptr, ptr %30, align 8
  %32 = load ptr, ptr %6, align 8
  %33 = getelementptr inbounds nuw %struct.evhttp_server_alias, ptr %32, i32 0, i32 0
  %34 = getelementptr inbounds nuw %struct.anon.13, ptr %33, i32 0, i32 1
  store ptr %31, ptr %34, align 8
  %35 = load ptr, ptr %6, align 8
  %36 = load ptr, ptr %4, align 8
  %37 = getelementptr inbounds nuw %struct.evhttp, ptr %36, i32 0, i32 8
  %38 = getelementptr inbounds nuw %struct.aliasq, ptr %37, i32 0, i32 1
  %39 = load ptr, ptr %38, align 8
  store ptr %35, ptr %39, align 8
  %40 = load ptr, ptr %6, align 8
  %41 = getelementptr inbounds nuw %struct.evhttp_server_alias, ptr %40, i32 0, i32 0
  %42 = getelementptr inbounds nuw %struct.anon.13, ptr %41, i32 0, i32 0
  %43 = load ptr, ptr %4, align 8
  %44 = getelementptr inbounds nuw %struct.evhttp, ptr %43, i32 0, i32 8
  %45 = getelementptr inbounds nuw %struct.aliasq, ptr %44, i32 0, i32 1
  store ptr %42, ptr %45, align 8
  br label %46

46:                                               ; preds = %24
  br label %47

47:                                               ; preds = %46
  store i32 0, ptr %3, align 4
  store i32 1, ptr %7, align 4
  br label %48

48:                                               ; preds = %47, %21, %11
  call void @llvm.lifetime.end.p0(i64 8, ptr %6) #11
  %49 = load i32, ptr %3, align 4
  ret i32 %49
}