; Function Attrs: nounwind uwtable
define range(i32 -1, 1) i32 @evhttp_add_server_alias(ptr noundef captures(none) %0, ptr noundef %1) local_unnamed_addr #0 {
  %3 = tail call ptr @event_mm_calloc_(i64 noundef 1, i64 noundef 24) #18
  %.not = icmp eq ptr %3, null
  br i1 %.not, label %12, label %4

4:                                                ; preds = %2
  %5 = tail call ptr @event_mm_strdup_(ptr noundef %1) #18
  %6 = getelementptr inbounds nuw i8, ptr %3, i64 16
  store ptr %5, ptr %6, align 8
  %.not13 = icmp eq ptr %5, null
  br i1 %.not13, label %7, label %8

7:                                                ; preds = %4
  tail call void @event_mm_free_(ptr noundef nonnull %3) #18
  br label %12

8:                                                ; preds = %4
  store ptr null, ptr %3, align 8
  %9 = getelementptr inbounds nuw i8, ptr %0, i64 112
  %10 = load ptr, ptr %9, align 8
  %11 = getelementptr inbounds nuw i8, ptr %3, i64 8
  store ptr %10, ptr %11, align 8
  store ptr %3, ptr %10, align 8
  store ptr %3, ptr %9, align 8
  br label %12

12:                                               ; preds = %2, %8, %7
  %.0 = phi i32 [ 0, %8 ], [ -1, %7 ], [ -1, %2 ]
  ret i32 %.0
}